; Function Attrs: mustprogress uwtable
define hidden noundef ptr @_ZN7datalog24external_relation_plugin22mk_filter_identical_fnERKNS_13relation_baseEjPKj(ptr noundef nonnull align 8 dereferenceable(48) %this, ptr noundef nonnull readonly align 8 dereferenceable(28) %r, i32 noundef %col_cnt, ptr noundef %identical_cols) unnamed_addr #3 align 2 {
entry:
  %m_plugin.i.i = getelementptr inbounds i8, ptr %r, i64 8
  %0 = load ptr, ptr %m_plugin.i.i, align 8
  %cmp.i = icmp eq ptr %0, %this
  br i1 %cmp.i, label %if.end, label %return

if.end:                                           ; preds = %entry
  %call2 = tail call noalias noundef ptr @_ZN6memory8allocateEm(i64 noundef 32)
  %1 = tail call ptr @__dynamic_cast(ptr nonnull %r, ptr nonnull @_ZTIN7datalog13relation_baseE, ptr nonnull @_ZTIN7datalog17external_relationE, i64 0) #17
  %2 = icmp eq ptr %1, null
  br i1 %2, label %dynamic_cast.bad_cast.i, label %_ZN7datalog24external_relation_plugin3getERKNS_13relation_baseE.exit

dynamic_cast.bad_cast.i:                          ; preds = %if.end
  tail call void @__cxa_bad_cast() #20
  unreachable

_ZN7datalog24external_relation_plugin3getERKNS_13relation_baseE.exit: ; preds = %if.end
  %m_rel.i = getelementptr inbounds i8, ptr %1, i64 32
  %3 = load ptr, ptr %m_rel.i, align 8
  %call2.i = tail call noundef ptr @_ZNK4expr8get_sortEv(ptr noundef nonnull align 4 dereferenceable(16) %3)
  tail call void @_ZN7datalog24external_relation_plugin19filter_identical_fnC2ERS0_P4sortjPKj(ptr noundef nonnull align 8 dereferenceable(32) %call2, ptr noundef nonnull align 8 dereferenceable(48) %this, ptr noundef %call2.i, i32 noundef %col_cnt, ptr noundef %identical_cols)
  br label %return

return:                                           ; preds = %entry, %_ZN7datalog24external_relation_plugin3getERKNS_13relation_baseE.exit
  %retval.0 = phi ptr [ %call2, %_ZN7datalog24external_relation_plugin3getERKNS_13relation_baseE.exit ], [ null, %entry ]
  ret ptr %retval.0
}